target datalayout = "e-m:e-p270:32:32-p271:32:32-p272:64:64-i64:64-i128:128-f80:128-n8:16:32:64-S128"
target triple = "x86_64-pc-linux-gnu"

; Function Attrs: mustprogress nounwind uwtable
define linkonce_odr hidden noundef zeroext i1 @_ZN4llvm8ICmpInst10isEqualityENS_7CmpInst9PredicateE(i32 noundef %0) #0 comdat align 2 {
  %2 = alloca i32, align 4
  store i32 %0, ptr %2, align 4
  %3 = load i32, ptr %2, align 4
  %4 = icmp eq i32 %3, 32
  br i1 %4, label %8, label %5

5:                                                ; preds = %1
  %6 = load i32, ptr %2, align 4
  %7 = icmp eq i32 %6, 33
  br label %8

8:                                                ; preds = %5, %1
  %9 = phi i1 [ true, %1 ], [ %7, %5 ]
  ret i1 %9
}

; Function Attrs: mustprogress nounwind uwtable
define dso_local noundef zeroext i1 @_ZN4llvm18predicatesFoldableENS_7CmpInst9PredicateES1_(i32 noundef %0, i32 noundef %1) #0 {
  %3 = alloca i32, align 4
  %4 = alloca i32, align 4
  store i32 %0, ptr %3, align 4
  store i32 %1, ptr %4, align 4
  %5 = load i32, ptr %3, align 4
  %6 = call noundef zeroext i1 @_ZN4llvm7CmpInst8isSignedENS0_9PredicateE(i32 noundef %5)
  %7 = zext i1 %6 to i32
  %8 = load i32, ptr %4, align 4
  %9 = call noundef zeroext i1 @_ZN4llvm7CmpInst8isSignedENS0_9PredicateE(i32 noundef %8)
  %10 = zext i1 %9 to i32
  %11 = icmp eq i32 %7, %10
  br i1 %11, label %26, label %12

12:                                               ; preds = %2
  %13 = load i32, ptr %3, align 4
  %14 = call noundef zeroext i1 @_ZN4llvm7CmpInst8isSignedENS0_9PredicateE(i32 noundef %13)
  br i1 %14, label %15, label %18

15:                                               ; preds = %12
  %16 = load i32, ptr %4, align 4
  %17 = call noundef zeroext i1 @_ZN4llvm8ICmpInst10isEqualityENS_7CmpInst9PredicateE(i32 noundef %16)
  br i1 %17, label %26, label %18

18:                                               ; preds = %15, %12
  %19 = load i32, ptr %4, align 4
  %20 = call noundef zeroext i1 @_ZN4llvm7CmpInst8isSignedENS0_9PredicateE(i32 noundef %19)
  br i1 %20, label %21, label %24

21:                                               ; preds = %18
  %22 = load i32, ptr %3, align 4
  %23 = call noundef zeroext i1 @_ZN4llvm8ICmpInst10isEqualityENS_7CmpInst9PredicateE(i32 noundef %22)
  br label %24

24:                                               ; preds = %21, %18
  %25 = phi i1 [ false, %18 ], [ %23, %21 ]
  br label %26

26:                                               ; preds = %24, %15, %2
  %27 = phi i1 [ true, %15 ], [ true, %2 ], [ %25, %24 ]
  ret i1 %27
}