; Function Attrs: mustprogress nounwind uwtable
define dso_local noundef zeroext i1 @_ZN4llvm18predicatesFoldableENS_7CmpInst9PredicateES1_(i32 noundef %0, i32 noundef %1) local_unnamed_addr #1 {
  %3 = tail call noundef zeroext i1 @_ZN4llvm7CmpInst8isSignedENS0_9PredicateE(i32 noundef %0) #7
  %4 = tail call noundef zeroext i1 @_ZN4llvm7CmpInst8isSignedENS0_9PredicateE(i32 noundef %1) #7
  %5 = xor i1 %3, %4
  br i1 %5, label %6, label %15

6:                                                ; preds = %2
  %7 = tail call noundef zeroext i1 @_ZN4llvm7CmpInst8isSignedENS0_9PredicateE(i32 noundef %0) #7
  %8 = and i32 %1, -2
  %9 = icmp eq i32 %8, 32
  %or.cond = and i1 %9, %7
  br i1 %or.cond, label %15, label %10

10:                                               ; preds = %6
  %11 = tail call noundef zeroext i1 @_ZN4llvm7CmpInst8isSignedENS0_9PredicateE(i32 noundef %1) #7
  br i1 %11, label %12, label %15

12:                                               ; preds = %10
  %13 = and i32 %0, -2
  %14 = icmp eq i32 %13, 32
  br label %15

15:                                               ; preds = %6, %10, %12, %2
  %16 = phi i1 [ true, %2 ], [ false, %10 ], [ %14, %12 ], [ true, %6 ]
  ret i1 %16
}